(dp1
I11264
S'enron/enron6/ham\\0354.2000-07-13.lokay.ham.txt'
p2
sI11777
S'enron/enron6/ham\\2389.2001-01-04.lokay.ham.txt'
p3
sI12291
S'enron/enron6/ham\\4488.2001-09-13.lokay.ham.txt'
p4
sI5639
S'enron/enron4/spam\\5518.2005-06-27.GP.spam.txt'
p5
sI11785
S'enron/enron6/ham\\2413.2001-01-05.lokay.ham.txt'
p6
sI11274
S'enron/enron6/ham\\0391.2000-07-14.lokay.ham.txt'
p7
sI11278
S'enron/enron6/ham\\0410.2000-07-17.lokay.ham.txt'
p8
sI5648
S'enron/enron4/spam\\5529.2005-06-28.GP.spam.txt'
p9
sI15895
S'enron/enron6/spam\\4282.2005-04-07.BG.spam.txt'
p10
sI15896
S'enron/enron6/spam\\4283.2005-04-07.BG.spam.txt'
p11
sI11296
S'enron/enron6/ham\\0481.2000-07-21.lokay.ham.txt'
p12
sI11809
S'enron/enron6/ham\\2515.2001-01-12.lokay.ham.txt'
p13
sI11811
S'enron/enron6/ham\\2527.2001-01-12.lokay.ham.txt'
p14
sI11301
S'enron/enron6/ham\\0505.2000-07-21.lokay.ham.txt'
p15
sI15398
S'enron/enron6/spam\\3630.2005-02-24.BG.spam.txt'
p16
sI39
S'enron/enron4/ham\\0157.2001-04-17.williams.ham.txt'
p17
sI7208
S'enron/enron5/ham\\4177.2001-01-24.beck.ham.txt'
p18
sI7209
S'enron/enron5/ham\\4178.2001-01-24.beck.ham.txt'
p19
sI44
S'enron/enron4/ham\\0176.2001-04-19.williams.ham.txt'
p20
sI10376
S'enron/enron5/spam\\4046.2005-07-15.SA_and_HP.spam.txt'
p21
sI12338
S'enron/enron6/ham\\4682.2001-10-05.lokay.ham.txt'
p22
sI51
S'enron/enron4/ham\\0212.2001-04-24.williams.ham.txt'
p23
sI8756
S'enron/enron5/spam\\1751.2005-06-22.SA_and_HP.spam.txt'
p24
sI12854
S'enron/enron6/spam\\0243.2004-08-18.BG.spam.txt'
p25
sI6847
S'enron/enron5/ham\\2965.2000-10-11.beck.ham.txt'
p26
sI11953
S'enron/enron6/ham\\3114.2001-02-20.lokay.ham.txt'
p27
sI11835
S'enron/enron6/ham\\2624.2001-01-19.lokay.ham.txt'
p28
sI10059
S'enron/enron5/spam\\3595.2005-07-05.SA_and_HP.spam.txt'
p29
sI16957
S'enron/enron6/spam\\5707.2005-07-12.BG.spam.txt'
p30
sI4671
S'enron/enron4/spam\\4224.2005-02-09.GP.spam.txt'
p31
sI6720
S'enron/enron5/ham\\2515.2000-09-12.beck.ham.txt'
p32
sI7234
S'enron/enron5/ham\\4258.2001-01-31.beck.ham.txt'
p33
sI7236
S'enron/enron5/ham\\4261.2001-02-01.beck.ham.txt'
p34
sI11817
S'enron/enron6/ham\\2548.2001-01-16.lokay.ham.txt'
p35
sI5704
S'enron/enron4/spam\\5605.2005-07-08.GP.spam.txt'
p36
sI11340
S'enron/enron6/ham\\0644.2000-08-04.lokay.ham.txt'
p37
sI3666
S'enron/enron4/spam\\2894.2004-10-28.GP.spam.txt'
p38
sI4191
S'enron/enron4/spam\\3588.2004-12-18.GP.spam.txt'
p39
sI14948
S'enron/enron6/spam\\3031.2005-01-26.BG.spam.txt'
p40
sI8805
S'enron/enron5/spam\\1818.2005-06-23.SA_and_HP.spam.txt'
p41
sI15464
S'enron/enron6/spam\\3712.2005-03-01.BG.spam.txt'
p42
sI8813
S'enron/enron5/spam\\1828.2005-06-23.SA_and_HP.spam.txt'
p43
sI6767
S'enron/enron5/ham\\2687.2000-09-25.beck.ham.txt'
p44
sI11377
S'enron/enron6/ham\\0791.2000-08-18.lokay.ham.txt'
p45
sI11381
S'enron/enron6/ham\\0808.2000-08-22.lokay.ham.txt'
p46
sI9334
S'enron/enron5/spam\\2569.2005-06-28.SA_and_HP.spam.txt'
p47
sI6335
S'enron/enron5/ham\\1171.2000-06-01.beck.ham.txt'
p48
sI124
S'enron/enron4/ham\\0521.2001-06-12.williams.ham.txt'
p49
sI11901
S'enron/enron6/ham\\2902.2001-02-01.lokay.ham.txt'
p50
sI6270
S'enron/enron5/ham\\0926.2000-05-06.beck.ham.txt'
p51
sI11395
S'enron/enron6/ham\\0866.2000-08-24.lokay.ham.txt'
p52
sI15492
S'enron/enron6/spam\\3749.2005-03-04.BG.spam.txt'
p53
sI16008
S'enron/enron6/spam\\4438.2005-04-18.BG.spam.txt'
p54
sI12429
S'enron/enron6/ham\\5049.2001-11-28.lokay.ham.txt'
p55
sI15504
S'enron/enron6/spam\\3764.2005-03-05.BG.spam.txt'
p56
sI14998
S'enron/enron6/spam\\3099.2005-01-30.BG.spam.txt'
p57
sI1687
S'enron/enron4/spam\\0249.2004-01-22.GP.spam.txt'
p58
sI6811
S'enron/enron5/ham\\2821.2000-10-04.beck.ham.txt'
p59
sI9372
S'enron/enron5/spam\\2625.2005-06-28.SA_and_HP.spam.txt'
p60
sI7328
S'enron/enron5/ham\\4563.2001-02-28.beck.ham.txt'
p61
sI9889
S'enron/enron5/spam\\3351.2005-07-04.SA_and_HP.spam.txt'
p62
sI163
S'enron/enron4/ham\\0693.2001-06-19.williams.ham.txt'
p63
sI10916
S'enron/enron5/spam\\4819.2005-07-19.SA_and_HP.spam.txt'
p64
sI7336
S'enron/enron5/ham\\4588.2001-03-01.beck.ham.txt'
p65
sI6321
S'enron/enron5/ham\\1117.2000-05-25.beck.ham.txt'
p66
sI6322
S'enron/enron5/ham\\1122.2000-05-25.beck.ham.txt'
p67
sI11445
S'enron/enron6/ham\\1050.2000-09-14.lokay.ham.txt'
p68
sI12247
S'enron/enron6/ham\\4324.2001-08-25.lokay.ham.txt'
p69
sI11447
S'enron/enron6/ham\\1059.2000-09-15.lokay.ham.txt'
p70
sI287
S'enron/enron4/ham\\1174.2001-07-10.williams.ham.txt'
p71
sI10940
S'enron/enron5/spam\\4853.2005-07-19.SA_and_HP.spam.txt'
p72
sI7357
S'enron/enron5/ham\\4668.2001-03-21.beck.ham.txt'
p73
sI6846
S'enron/enron5/ham\\2963.2000-10-11.beck.ham.txt'
p74
sI10943
S'enron/enron5/spam\\4857.2005-07-19.SA_and_HP.spam.txt'
p75
sI12480
S'enron/enron6/ham\\5228.2002-01-03.lokay.ham.txt'
p76
sI705
S'enron/enron4/ham\\2818.2001-10-18.williams.ham.txt'
p77
sI6603
S'enron/enron5/ham\\2137.2000-08-11.beck.ham.txt'
p78
sI6341
S'enron/enron5/ham\\1188.2000-06-02.beck.ham.txt'
p79
sI6342
S'enron/enron5/ham\\1191.2000-06-02.beck.ham.txt'
p80
sI6855
S'enron/enron5/ham\\2989.2000-10-12.beck.ham.txt'
p81
sI15054
S'enron/enron6/spam\\3172.2005-02-02.BG.spam.txt'
p82
sI15055
S'enron/enron6/spam\\3173.2005-02-02.BG.spam.txt'
p83
sI6948
S'enron/enron5/ham\\3315.2000-11-08.beck.ham.txt'
p84
sI6362
S'enron/enron5/ham\\1260.2000-06-08.beck.ham.txt'
p85
sI11471
S'enron/enron6/ham\\1167.2000-09-22.lokay.ham.txt'
p86
sI6693
S'enron/enron5/ham\\2433.2000-09-06.beck.ham.txt'
p87
sI11497
S'enron/enron6/ham\\1270.2000-10-05.lokay.ham.txt'
p88
sI6380
S'enron/enron5/ham\\1330.2000-06-12.beck.ham.txt'
p89
sI11504
S'enron/enron6/ham\\1294.2000-10-06.lokay.ham.txt'
p90
sI14888
S'enron/enron6/spam\\2952.2005-01-23.BG.spam.txt'
p91
sI243
S'enron/enron4/ham\\1010.2001-07-04.williams.ham.txt'
p92
sI126
S'enron/enron4/ham\\0527.2001-06-12.williams.ham.txt'
p93
sI9463
S'enron/enron5/spam\\2756.2005-06-29.SA_and_HP.spam.txt'
p94
sI12026
S'enron/enron6/ham\\3417.2001-04-16.lokay.ham.txt'
p95
sI3882
S'enron/enron4/spam\\3177.2004-11-18.GP.spam.txt'
p96
sI15617
S'enron/enron6/spam\\3908.2005-03-14.BG.spam.txt'
p97
sI11011
S'enron/enron5/spam\\4953.2005-07-20.SA_and_HP.spam.txt'
p98
sI7428
S'enron/enron5/ham\\4911.2001-04-04.beck.ham.txt'
p99
sI6917
S'enron/enron5/ham\\3206.2000-10-27.beck.ham.txt'
p100
sI15745
S'enron/enron6/spam\\4077.2005-03-24.BG.spam.txt'
p101
sI7212
S'enron/enron5/ham\\4186.2001-01-24.beck.ham.txt'
p102
sI11735
S'enron/enron6/ham\\2219.2000-12-11.lokay.ham.txt'
p103
sI11536
S'enron/enron6/ham\\1430.2000-10-13.lokay.ham.txt'
p104
sI15635
S'enron/enron6/spam\\3932.2005-03-15.BG.spam.txt'
p105
sI15641
S'enron/enron6/spam\\3941.2005-03-16.BG.spam.txt'
p106
sI15642
S'enron/enron6/spam\\3942.2005-03-16.BG.spam.txt'
p107
sI12572
S'enron/enron6/ham\\5593.2002-02-12.lokay.ham.txt'
p108
sI6430
S'enron/enron5/ham\\1519.2000-06-19.beck.ham.txt'
p109
sI6431
S'enron/enron5/ham\\1524.2000-06-19.beck.ham.txt'
p110
sI7970
S'enron/enron5/spam\\0667.2002-07-22.SA_and_HP.spam.txt'
p111
sI6947
S'enron/enron5/ham\\3310.2000-11-08.beck.ham.txt'
p112
sI12580
S'enron/enron6/ham\\5627.2002-02-14.lokay.ham.txt'
p113
sI14630
S'enron/enron6/spam\\2612.2005-01-09.BG.spam.txt'
p114
sI15656
S'enron/enron6/spam\\3958.2005-03-17.BG.spam.txt'
p115
sI15657
S'enron/enron6/spam\\3959.2005-03-17.BG.spam.txt'
p116
sI15658
S'enron/enron6/spam\\3961.2005-03-17.BG.spam.txt'
p117
sI8491
S'enron/enron5/spam\\1384.2005-03-19.SA_and_HP.spam.txt'
p118
sI4397
S'enron/enron4/spam\\3862.2005-01-10.GP.spam.txt'
p119
sI14641
S'enron/enron6/spam\\2629.2005-01-10.BG.spam.txt'
p120
sI8498
S'enron/enron5/spam\\1393.2005-03-24.SA_and_HP.spam.txt'
p121
sI4403
S'enron/enron4/spam\\3870.2005-01-10.GP.spam.txt'
p122
sI8500
S'enron/enron5/spam\\1395.2005-03-25.SA_and_HP.spam.txt'
p123
sI8501
S'enron/enron5/spam\\1397.2005-03-26.SA_and_HP.spam.txt'
p124
sI11574
S'enron/enron6/ham\\1564.2000-10-27.lokay.ham.txt'
p125
sI16697
S'enron/enron6/spam\\5359.2005-06-20.BG.spam.txt'
p126
sI8506
S'enron/enron5/spam\\1405.2005-04-08.SA_and_HP.spam.txt'
p127
sI8508
S'enron/enron5/spam\\1407.2005-04-11.SA_and_HP.spam.txt'
p128
sI317
S'enron/enron4/ham\\1295.2001-07-13.williams.ham.txt'
p129
sI11590
S'enron/enron6/ham\\1638.2000-11-01.lokay.ham.txt'
p130
sI8519
S'enron/enron5/spam\\1422.2005-04-27.SA_and_HP.spam.txt'
p131
sI15689
S'enron/enron6/spam\\4001.2005-03-19.BG.spam.txt'
p132
sI12618
S'enron/enron6/ham\\5783.2002-03-04.lokay.ham.txt'
p133
sI15179
S'enron/enron6/spam\\3337.2005-02-09.BG.spam.txt'
p134
sI10061
S'enron/enron5/spam\\3598.2005-07-05.SA_and_HP.spam.txt'
p135
sI10064
S'enron/enron5/spam\\3602.2005-07-05.SA_and_HP.spam.txt'
p136
sI8760
S'enron/enron5/spam\\1757.2005-06-22.SA_and_HP.spam.txt'
p137
sI7508
S'enron/enron5/spam\\0013.2001-06-30.SA_and_HP.spam.txt'
p138
sI15701
S'enron/enron6/spam\\4018.2005-03-20.BG.spam.txt'
p139
sI15702
S'enron/enron6/spam\\4019.2005-03-20.BG.spam.txt'
p140
sI11607
S'enron/enron6/ham\\1705.2000-11-03.lokay.ham.txt'
p141
sI3932
S'enron/enron4/spam\\3246.2004-11-23.GP.spam.txt'
p142
sI350
S'enron/enron4/ham\\1425.2001-07-20.williams.ham.txt'
p143
sI15712
S'enron/enron6/spam\\4033.2005-03-21.BG.spam.txt'
p144
sI15713
S'enron/enron6/spam\\4034.2005-03-21.BG.spam.txt'
p145
sI2916
S'enron/enron4/spam\\1883.2004-07-29.GP.spam.txt'
p146
sI12645
S'enron/enron6/ham\\5890.2002-03-14.lokay.ham.txt'
p147
sI11624
S'enron/enron6/ham\\1774.2000-11-08.lokay.ham.txt'
p148
sI7021
S'enron/enron5/ham\\3553.2000-11-29.beck.ham.txt'
p149
sI8509
S'enron/enron5/spam\\1408.2005-04-12.SA_and_HP.spam.txt'
p150
sI16754
S'enron/enron6/spam\\5437.2005-06-26.BG.spam.txt'
p151
sI15732
S'enron/enron6/spam\\4060.2005-03-23.BG.spam.txt'
p152
sI12662
S'enron/enron6/ham\\5957.2002-03-22.lokay.ham.txt'
p153
sI4841
S'enron/enron4/spam\\4451.2005-02-24.GP.spam.txt'
p154
sI12157
S'enron/enron6/ham\\3982.2001-07-17.lokay.ham.txt'
p155
sI8768
S'enron/enron5/spam\\1766.2005-06-22.SA_and_HP.spam.txt'
p156
sI6020
S'enron/enron5/ham\\0074.2000-01-21.beck.ham.txt'
p157
sI8581
S'enron/enron5/spam\\1509.2005-06-21.SA_and_HP.spam.txt'
p158
sI16774
S'enron/enron6/spam\\5464.2005-06-28.BG.spam.txt'
p159
sI12595
S'enron/enron6/ham\\5696.2002-02-22.lokay.ham.txt'
p160
sI7051
S'enron/enron5/ham\\3646.2000-12-07.beck.ham.txt'
p161
sI11665
S'enron/enron6/ham\\1929.2000-11-16.lokay.ham.txt'
p162
sI15762
S'enron/enron6/spam\\4099.2005-03-25.BG.spam.txt'
p163
sI9108
S'enron/enron5/spam\\2244.2005-06-26.SA_and_HP.spam.txt'
p164
sI5013
S'enron/enron4/spam\\4682.2005-03-19.GP.spam.txt'
p165
sI11675
S'enron/enron6/ham\\1963.2000-11-17.lokay.ham.txt'
p166
sI11677
S'enron/enron6/ham\\1969.2000-11-17.lokay.ham.txt'
p167
sI13040
S'enron/enron6/spam\\0489.2004-09-06.BG.spam.txt'
p168
sI7323
S'enron/enron5/ham\\4542.2001-02-26.beck.ham.txt'
p169
sI12197
S'enron/enron6/ham\\4133.2001-08-03.lokay.ham.txt'
p170
sI12200
S'enron/enron6/ham\\4145.2001-08-05.lokay.ham.txt'
p171
sI12201
S'enron/enron6/ham\\4149.2001-08-05.lokay.ham.txt'
p172
sI11690
S'enron/enron6/ham\\2022.2000-11-27.lokay.ham.txt'
p173
sI7083
S'enron/enron5/ham\\3754.2000-12-13.beck.ham.txt'
p174
sI7085
S'enron/enron5/ham\\3760.2000-12-13.beck.ham.txt'
p175
sI16305
S'enron/enron6/spam\\4830.2005-05-15.BG.spam.txt'
p176
sI11698
S'enron/enron6/ham\\2060.2000-11-29.lokay.ham.txt'
p177
sI9143
S'enron/enron5/spam\\2295.2005-06-26.SA_and_HP.spam.txt'
p178
sI15807
S'enron/enron6/spam\\4164.2005-03-30.BG.spam.txt'
p179
sI14155
S'enron/enron6/spam\\1988.2004-12-06.BG.spam.txt'
p180
sI9668
S'enron/enron5/spam\\3041.2005-07-01.SA_and_HP.spam.txt'
p181
sI673
S'enron/enron4/ham\\2685.2001-09-10.williams.ham.txt'
p182
sI6602
S'enron/enron5/ham\\2133.2000-08-11.beck.ham.txt'
p183
sI14795
S'enron/enron6/spam\\2830.2005-01-19.BG.spam.txt'
p184
sI6604
S'enron/enron5/ham\\2140.2000-08-14.beck.ham.txt'
p185
sI11729
S'enron/enron6/ham\\2193.2000-12-08.lokay.ham.txt'
p186
sI419
S'enron/enron4/ham\\1698.2001-07-30.williams.ham.txt'
p187
sI11734
S'enron/enron6/ham\\2214.2000-12-11.lokay.ham.txt'
p188
sI16855
S'enron/enron6/spam\\5572.2005-07-05.BG.spam.txt'
p189
sI6106
S'enron/enron5/ham\\0371.2000-02-25.beck.ham.txt'
p190
sI2042
S'enron/enron4/spam\\0712.2004-03-30.GP.spam.txt'
p191
sI11744
S'enron/enron6/ham\\2257.2000-12-14.lokay.ham.txt'
p192
sI12112
S'enron/enron6/ham\\3780.2001-06-18.lokay.ham.txt'
p193
sI411
S'enron/enron4/ham\\1669.2001-07-27.williams.ham.txt'
p194
sI15667
S'enron/enron6/spam\\3973.2005-03-17.BG.spam.txt'
p195
sI14827
S'enron/enron6/spam\\2870.2005-01-20.BG.spam.txt'
p196
sI11244
S'enron/enron6/ham\\0274.2000-07-07.lokay.ham.txt'
p197
sI11858
S'enron/enron6/ham\\2707.2001-01-24.lokay.ham.txt'
p198
sI12784
S'enron/enron6/spam\\0148.2004-08-11.BG.spam.txt'
p199
sI506
S'enron/enron4/ham\\2036.2001-08-10.williams.ham.txt'
p200
sI12286
S'enron/enron6/ham\\4465.2001-09-09.lokay.ham.txt'
p201
s.