(S'enron/enron6/spam\\2830.2005-01-19.BG.spam.txt'
p1
S'enron/enron5/ham\\1330.2000-06-12.beck.ham.txt'
p2
S'enron/enron5/ham\\4177.2001-01-24.beck.ham.txt'
p3
S'enron/enron6/spam\\3942.2005-03-16.BG.spam.txt'
p4
S'enron/enron4/ham\\0157.2001-04-17.williams.ham.txt'
p5
S'enron/enron6/ham\\1638.2000-11-01.lokay.ham.txt'
p6
S'enron/enron6/ham\\2527.2001-01-12.lokay.ham.txt'
p7
S'enron/enron5/spam\\4953.2005-07-20.SA_and_HP.spam.txt'
p8
S'enron/enron4/ham\\1425.2001-07-20.williams.ham.txt'
p9
S'enron/enron5/ham\\1117.2000-05-25.beck.ham.txt'
p10
S'enron/enron6/spam\\2612.2005-01-09.BG.spam.txt'
p11
S'enron/enron5/spam\\3041.2005-07-01.SA_and_HP.spam.txt'
p12
S'enron/enron5/ham\\3206.2000-10-27.beck.ham.txt'
p13
S'enron/enron4/ham\\0176.2001-04-19.williams.ham.txt'
p14
S'enron/enron4/spam\\4224.2005-02-09.GP.spam.txt'
p15
S'enron/enron6/spam\\4001.2005-03-19.BG.spam.txt'
p16
S'enron/enron6/spam\\3337.2005-02-09.BG.spam.txt'
p17
S'enron/enron6/ham\\0274.2000-07-07.lokay.ham.txt'
p18
S'enron/enron4/spam\\3588.2004-12-18.GP.spam.txt'
p19
S'enron/enron6/spam\\5707.2005-07-12.BG.spam.txt'
p20
S'enron/enron6/spam\\3961.2005-03-17.BG.spam.txt'
p21
S'enron/enron6/spam\\2629.2005-01-10.BG.spam.txt'
p22
S'enron/enron4/ham\\1010.2001-07-04.williams.ham.txt'
p23
S'enron/enron5/spam\\1393.2005-03-24.SA_and_HP.spam.txt'
p24
S'enron/enron6/spam\\3749.2005-03-04.BG.spam.txt'
p25
S'enron/enron6/spam\\3764.2005-03-05.BG.spam.txt'
p26
S'enron/enron6/spam\\4019.2005-03-20.BG.spam.txt'
p27
S'enron/enron6/ham\\1294.2000-10-06.lokay.ham.txt'
p28
S'enron/enron4/spam\\3862.2005-01-10.GP.spam.txt'
p29
S'enron/enron6/ham\\1969.2000-11-17.lokay.ham.txt'
p30
S'enron/enron4/spam\\3870.2005-01-10.GP.spam.txt'
p31
S'enron/enron4/ham\\0693.2001-06-19.williams.ham.txt'
p32
S'enron/enron6/spam\\4034.2005-03-21.BG.spam.txt'
p33
S'enron/enron5/ham\\2515.2000-09-12.beck.ham.txt'
p34
S'enron/enron6/ham\\1050.2000-09-14.lokay.ham.txt'
p35
S'enron/enron6/spam\\3908.2005-03-14.BG.spam.txt'
p36
S'enron/enron4/ham\\1295.2001-07-13.williams.ham.txt'
p37
S'enron/enron5/ham\\1260.2000-06-08.beck.ham.txt'
p38
S'enron/enron6/ham\\5696.2002-02-22.lokay.ham.txt'
p39
S'enron/enron6/ham\\3780.2001-06-18.lokay.ham.txt'
p40
S'enron/enron6/spam\\3941.2005-03-16.BG.spam.txt'
p41
S'enron/enron6/spam\\4438.2005-04-18.BG.spam.txt'
p42
S'enron/enron6/spam\\3959.2005-03-17.BG.spam.txt'
p43
S'enron/enron5/ham\\4178.2001-01-24.beck.ham.txt'
p44
S'enron/enron4/ham\\1174.2001-07-10.williams.ham.txt'
p45
S'enron/enron6/ham\\5957.2002-03-22.lokay.ham.txt'
p46
S'enron/enron6/ham\\0505.2000-07-21.lokay.ham.txt'
p47
S'enron/enron6/spam\\4018.2005-03-20.BG.spam.txt'
p48
S'enron/enron5/ham\\3754.2000-12-13.beck.ham.txt'
p49
S'enron/enron6/ham\\2413.2001-01-05.lokay.ham.txt'
p50
S'enron/enron6/spam\\4830.2005-05-15.BG.spam.txt'
p51
S'enron/enron6/spam\\3958.2005-03-17.BG.spam.txt'
p52
S'enron/enron6/spam\\4033.2005-03-21.BG.spam.txt'
p53
S'enron/enron6/ham\\1963.2000-11-17.lokay.ham.txt'
p54
S'enron/enron4/ham\\2036.2001-08-10.williams.ham.txt'
p55
S'enron/enron4/ham\\2818.2001-10-18.williams.ham.txt'
p56
S'enron/enron5/ham\\2687.2000-09-25.beck.ham.txt'
p57
S'enron/enron4/ham\\0212.2001-04-24.williams.ham.txt'
p58
S'enron/enron6/spam\\3932.2005-03-15.BG.spam.txt'
p59
S'enron/enron6/ham\\1705.2000-11-03.lokay.ham.txt'
p60
S'enron/enron5/spam\\1828.2005-06-23.SA_and_HP.spam.txt'
p61
S'enron/enron5/ham\\3553.2000-11-29.beck.ham.txt'
p62
S'enron/enron6/ham\\5228.2002-01-03.lokay.ham.txt'
p63
S'enron/enron4/ham\\0521.2001-06-12.williams.ham.txt'
p64
S'enron/enron5/spam\\3602.2005-07-05.SA_and_HP.spam.txt'
p65
S'enron/enron5/ham\\0926.2000-05-06.beck.ham.txt'
p66
S'enron/enron5/spam\\3351.2005-07-04.SA_and_HP.spam.txt'
p67
S'enron/enron6/spam\\3031.2005-01-26.BG.spam.txt'
p68
S'enron/enron4/spam\\3177.2004-11-18.GP.spam.txt'
p69
S'enron/enron5/spam\\3598.2005-07-05.SA_and_HP.spam.txt'
p70
S'enron/enron6/ham\\2624.2001-01-19.lokay.ham.txt'
p71
S'enron/enron6/spam\\0243.2004-08-18.BG.spam.txt'
p72
S'enron/enron5/ham\\2133.2000-08-11.beck.ham.txt'
p73
S'enron/enron6/ham\\1270.2000-10-05.lokay.ham.txt'
p74
S'enron/enron6/spam\\5572.2005-07-05.BG.spam.txt'
p75
S'enron/enron5/ham\\4186.2001-01-24.beck.ham.txt'
p76
S'enron/enron6/ham\\2193.2000-12-08.lokay.ham.txt'
p77
S'enron/enron4/spam\\5605.2005-07-08.GP.spam.txt'
p78
S'enron/enron5/spam\\1751.2005-06-22.SA_and_HP.spam.txt'
p79
S'enron/enron4/spam\\3246.2004-11-23.GP.spam.txt'
p80
S'enron/enron4/spam\\2894.2004-10-28.GP.spam.txt'
p81
S'enron/enron5/ham\\1524.2000-06-19.beck.ham.txt'
p82
S'enron/enron6/spam\\4060.2005-03-23.BG.spam.txt'
p83
S'enron/enron5/ham\\4668.2001-03-21.beck.ham.txt'
p84
S'enron/enron6/ham\\0866.2000-08-24.lokay.ham.txt'
p85
S'enron/enron4/spam\\4682.2005-03-19.GP.spam.txt'
p86
S'enron/enron6/ham\\0410.2000-07-17.lokay.ham.txt'
p87
S'enron/enron5/spam\\1766.2005-06-22.SA_and_HP.spam.txt'
p88
S'enron/enron6/ham\\4682.2001-10-05.lokay.ham.txt'
p89
S'enron/enron6/ham\\4133.2001-08-03.lokay.ham.txt'
p90
S'enron/enron5/ham\\2140.2000-08-14.beck.ham.txt'
p91
S'enron/enron4/ham\\0527.2001-06-12.williams.ham.txt'
p92
S'enron/enron5/spam\\1408.2005-04-12.SA_and_HP.spam.txt'
p93
S'enron/enron5/ham\\1188.2000-06-02.beck.ham.txt'
p94
S'enron/enron6/spam\\4077.2005-03-24.BG.spam.txt'
p95
S'enron/enron6/spam\\3712.2005-03-01.BG.spam.txt'
p96
S'enron/enron6/spam\\3630.2005-02-24.BG.spam.txt'
p97
S'enron/enron6/ham\\0644.2000-08-04.lokay.ham.txt'
p98
S'enron/enron6/spam\\4283.2005-04-07.BG.spam.txt'
p99
S'enron/enron5/ham\\2821.2000-10-04.beck.ham.txt'
p100
S'enron/enron5/spam\\0667.2002-07-22.SA_and_HP.spam.txt'
p101
S'enron/enron5/spam\\1397.2005-03-26.SA_and_HP.spam.txt'
p102
S'enron/enron5/ham\\1122.2000-05-25.beck.ham.txt'
p103
S'enron/enron6/spam\\5464.2005-06-28.BG.spam.txt'
p104
S'enron/enron6/ham\\1059.2000-09-15.lokay.ham.txt'
p105
S'enron/enron5/ham\\4261.2001-02-01.beck.ham.txt'
p106
S'enron/enron5/ham\\4258.2001-01-31.beck.ham.txt'
p107
S'enron/enron5/spam\\1407.2005-04-11.SA_and_HP.spam.txt'
p108
S'enron/enron5/spam\\2569.2005-06-28.SA_and_HP.spam.txt'
p109
S'enron/enron5/spam\\1384.2005-03-19.SA_and_HP.spam.txt'
p110
S'enron/enron6/spam\\2870.2005-01-20.BG.spam.txt'
p111
S'enron/enron5/ham\\1191.2000-06-02.beck.ham.txt'
p112
S'enron/enron4/spam\\4451.2005-02-24.GP.spam.txt'
p113
S'enron/enron6/ham\\3417.2001-04-16.lokay.ham.txt'
p114
S'enron/enron5/spam\\4857.2005-07-19.SA_and_HP.spam.txt'
p115
S'enron/enron6/spam\\3173.2005-02-02.BG.spam.txt'
p116
S'enron/enron6/spam\\3172.2005-02-02.BG.spam.txt'
p117
S'enron/enron6/spam\\3973.2005-03-17.BG.spam.txt'
p118
S'enron/enron4/ham\\2685.2001-09-10.williams.ham.txt'
p119
S'enron/enron6/ham\\0391.2000-07-14.lokay.ham.txt'
p120
S'enron/enron6/ham\\0481.2000-07-21.lokay.ham.txt'
p121
S'enron/enron6/ham\\2060.2000-11-29.lokay.ham.txt'
p122
S'enron/enron6/spam\\4282.2005-04-07.BG.spam.txt'
p123
S'enron/enron5/spam\\2295.2005-06-26.SA_and_HP.spam.txt'
p124
S'enron/enron6/spam\\4099.2005-03-25.BG.spam.txt'
p125
S'enron/enron5/spam\\1422.2005-04-27.SA_and_HP.spam.txt'
p126
S'enron/enron5/ham\\1519.2000-06-19.beck.ham.txt'
p127
S'enron/enron5/spam\\1395.2005-03-25.SA_and_HP.spam.txt'
p128
S'enron/enron5/spam\\1405.2005-04-08.SA_and_HP.spam.txt'
p129
S'enron/enron6/ham\\4488.2001-09-13.lokay.ham.txt'
p130
S'enron/enron5/ham\\1171.2000-06-01.beck.ham.txt'
p131
S'enron/enron5/spam\\1509.2005-06-21.SA_and_HP.spam.txt'
p132
S'enron/enron5/ham\\4588.2001-03-01.beck.ham.txt'
p133
S'enron/enron6/ham\\0791.2000-08-18.lokay.ham.txt'
p134
S'enron/enron6/ham\\1929.2000-11-16.lokay.ham.txt'
p135
S'enron/enron6/ham\\4145.2001-08-05.lokay.ham.txt'
p136
S'enron/enron6/ham\\4149.2001-08-05.lokay.ham.txt'
p137
S'enron/enron6/ham\\1167.2000-09-22.lokay.ham.txt'
p138
S'enron/enron6/ham\\0808.2000-08-22.lokay.ham.txt'
p139
S'enron/enron6/spam\\1988.2004-12-06.BG.spam.txt'
p140
S'enron/enron6/ham\\2902.2001-02-01.lokay.ham.txt'
p141
S'enron/enron4/spam\\5518.2005-06-27.GP.spam.txt'
p142
S'enron/enron4/spam\\5529.2005-06-28.GP.spam.txt'
p143
S'enron/enron6/ham\\4465.2001-09-09.lokay.ham.txt'
p144
S'enron/enron6/spam\\5437.2005-06-26.BG.spam.txt'
p145
S'enron/enron5/spam\\2244.2005-06-26.SA_and_HP.spam.txt'
p146
S'enron/enron5/spam\\4853.2005-07-19.SA_and_HP.spam.txt'
p147
S'enron/enron5/spam\\2625.2005-06-28.SA_and_HP.spam.txt'
p148
S'enron/enron5/ham\\4563.2001-02-28.beck.ham.txt'
p149
S'enron/enron5/ham\\3760.2000-12-13.beck.ham.txt'
p150
S'enron/enron5/ham\\2433.2000-09-06.beck.ham.txt'
p151
S'enron/enron5/spam\\3595.2005-07-05.SA_and_HP.spam.txt'
p152
S'enron/enron6/ham\\2257.2000-12-14.lokay.ham.txt'
p153
S'enron/enron6/spam\\5359.2005-06-20.BG.spam.txt'
p154
S'enron/enron5/ham\\3646.2000-12-07.beck.ham.txt'
p155
S'enron/enron5/ham\\4542.2001-02-26.beck.ham.txt'
p156
S'enron/enron5/ham\\0074.2000-01-21.beck.ham.txt'
p157
S'enron/enron5/spam\\4046.2005-07-15.SA_and_HP.spam.txt'
p158
S'enron/enron6/spam\\3099.2005-01-30.BG.spam.txt'
p159
S'enron/enron4/spam\\0712.2004-03-30.GP.spam.txt'
p160
S'enron/enron6/ham\\2219.2000-12-11.lokay.ham.txt'
p161
S'enron/enron6/ham\\5783.2002-03-04.lokay.ham.txt'
p162
S'enron/enron6/spam\\2952.2005-01-23.BG.spam.txt'
p163
S'enron/enron4/spam\\1883.2004-07-29.GP.spam.txt'
p164
S'enron/enron5/ham\\0371.2000-02-25.beck.ham.txt'
p165
S'enron/enron5/ham\\2137.2000-08-11.beck.ham.txt'
p166
S'enron/enron6/ham\\4324.2001-08-25.lokay.ham.txt'
p167
S'enron/enron5/ham\\2965.2000-10-11.beck.ham.txt'
p168
S'enron/enron6/ham\\1430.2000-10-13.lokay.ham.txt'
p169
S'enron/enron4/spam\\0249.2004-01-22.GP.spam.txt'
p170
S'enron/enron6/ham\\5049.2001-11-28.lokay.ham.txt'
p171
S'enron/enron4/ham\\1669.2001-07-27.williams.ham.txt'
p172
S'enron/enron5/spam\\2756.2005-06-29.SA_and_HP.spam.txt'
p173
S'enron/enron6/ham\\2214.2000-12-11.lokay.ham.txt'
p174
S'enron/enron6/ham\\5627.2002-02-14.lokay.ham.txt'
p175
S'enron/enron6/spam\\0489.2004-09-06.BG.spam.txt'
p176
S'enron/enron5/ham\\3310.2000-11-08.beck.ham.txt'
p177
S'enron/enron6/ham\\1774.2000-11-08.lokay.ham.txt'
p178
S'enron/enron5/spam\\1818.2005-06-23.SA_and_HP.spam.txt'
p179
S'enron/enron5/ham\\3315.2000-11-08.beck.ham.txt'
p180
S'enron/enron5/spam\\0013.2001-06-30.SA_and_HP.spam.txt'
p181
S'enron/enron6/ham\\0354.2000-07-13.lokay.ham.txt'
p182
S'enron/enron6/ham\\2022.2000-11-27.lokay.ham.txt'
p183
S'enron/enron6/ham\\2707.2001-01-24.lokay.ham.txt'
p184
S'enron/enron6/ham\\3114.2001-02-20.lokay.ham.txt'
p185
S'enron/enron5/spam\\1757.2005-06-22.SA_and_HP.spam.txt'
p186
S'enron/enron6/spam\\4164.2005-03-30.BG.spam.txt'
p187
S'enron/enron5/spam\\4819.2005-07-19.SA_and_HP.spam.txt'
p188
S'enron/enron6/spam\\0148.2004-08-11.BG.spam.txt'
p189
S'enron/enron5/ham\\4911.2001-04-04.beck.ham.txt'
p190
S'enron/enron4/ham\\1698.2001-07-30.williams.ham.txt'
p191
S'enron/enron6/ham\\1564.2000-10-27.lokay.ham.txt'
p192
S'enron/enron5/ham\\2963.2000-10-11.beck.ham.txt'
p193
S'enron/enron5/ham\\2989.2000-10-12.beck.ham.txt'
p194
S'enron/enron6/ham\\2548.2001-01-16.lokay.ham.txt'
p195
S'enron/enron6/ham\\2515.2001-01-12.lokay.ham.txt'
p196
S'enron/enron6/ham\\2389.2001-01-04.lokay.ham.txt'
p197
S'enron/enron6/ham\\5890.2002-03-14.lokay.ham.txt'
p198
S'enron/enron6/ham\\3982.2001-07-17.lokay.ham.txt'
p199
S'enron/enron6/ham\\5593.2002-02-12.lokay.ham.txt'
p200
t.